c__builtin__
set
p0
((lp1
S'https://newyork.craigslist.org/mnh/bid/5442874689.html'
p2
aS'https://cnj.craigslist.org/bik/5435083268.html'
p3
aS'https://newyork.craigslist.org/brk/bik/5432665075.html'
p4
aS'https://cnj.craigslist.org/bik/5437806080.html'
p5
aS'https://cnj.craigslist.org/bik/5450833008.html'
p6
aS'https://cnj.craigslist.org/bik/5372679355.html'
p7
aS'https://newyork.craigslist.org/lgi/bik/5434490285.html'
p8
aS'https://hudsonvalley.craigslist.org/bik/5406627262.html'
p9
aS'https://newjersey.craigslist.org/bik/5391394424.html'
p10
aS'https://newyork.craigslist.org/mnh/bik/5402639823.html'
p11
aS'https://newjersey.craigslist.org/bik/5437720376.html'
p12
aS'https://newyork.craigslist.org/que/bik/5441848902.html'
p13
aS'https://hudsonvalley.craigslist.org/bik/5442558530.html'
p14
aS'https://hudsonvalley.craigslist.org/bik/5407435041.html'
p15
aS'https://newyork.craigslist.org/mnh/bik/5434669171.html'
p16
aS'https://jerseyshore.craigslist.org/bik/5395987335.html'
p17
aS'https://newyork.craigslist.org/brk/bik/5429051139.html'
p18
aS'https://newhaven.craigslist.org/bik/5446512694.html'
p19
aS'https://newyork.craigslist.org/brk/bik/5415911725.html'
p20
aS'https://newyork.craigslist.org/que/bik/5442683071.html'
p21
aS'https://newyork.craigslist.org/brk/bik/5443348074.html'
p22
aS'https://newyork.craigslist.org/wch/bid/5439320377.html'
p23
aS'https://newyork.craigslist.org/que/bik/5448003334.html'
p24
aS'https://cnj.craigslist.org/bik/5418293666.html'
p25
aS'https://newyork.craigslist.org/mnh/bik/5402638282.html'
p26
aS'https://newyork.craigslist.org/wch/bik/5446013233.html'
p27
aS'https://longisland.craigslist.org/bik/5394937002.html'
p28
aS'https://newjersey.craigslist.org/bik/5392201914.html'
p29
aS'https://longisland.craigslist.org/bik/5427256144.html'
p30
aS'https://newyork.craigslist.org/mnh/bid/5450952791.html'
p31
aS'https://newyork.craigslist.org/mnh/bik/5447856440.html'
p32
aS'https://longisland.craigslist.org/bik/5444145301.html'
p33
aS'https://newyork.craigslist.org/brk/bik/5449749305.html'
p34
aS'https://cnj.craigslist.org/bik/5397202688.html'
p35
aS'https://newyork.craigslist.org/fct/bik/5447548166.html'
p36
aS'https://newjersey.craigslist.org/bik/5413332047.html'
p37
aS'https://newyork.craigslist.org/wch/bik/5444300907.html'
p38
aS'https://newjersey.craigslist.org/bid/5432902563.html'
p39
aS'https://cnj.craigslist.org/bik/5385786099.html'
p40
aS'https://newyork.craigslist.org/mnh/bid/5446381216.html'
p41
aS'https://newjersey.craigslist.org/bid/5427713309.html'
p42
aS'https://newjersey.craigslist.org/bid/5418935100.html'
p43
aS'https://newyork.craigslist.org/mnh/bik/5447373729.html'
p44
aS'https://newjersey.craigslist.org/bik/5405854365.html'
p45
aS'https://newjersey.craigslist.org/bik/5422382046.html'
p46
aS'https://newyork.craigslist.org/jsy/bik/5438760560.html'
p47
aS'https://hudsonvalley.craigslist.org/bik/5436849049.html'
p48
aS'https://cnj.craigslist.org/bik/5422393945.html'
p49
aS'https://newhaven.craigslist.org/bik/5374947825.html'
p50
aS'https://newyork.craigslist.org/wch/bik/5434720079.html'
p51
aS'https://newyork.craigslist.org/lgi/bik/5427255678.html'
p52
aS'https://newyork.craigslist.org/brk/bik/5446478516.html'
p53
aS'https://newyork.craigslist.org/wch/bik/5442773538.html'
p54
aS'https://newyork.craigslist.org/brk/bik/5402416958.html'
p55
atp56
Rp57
.