c__builtin__
set
p0
((lp1
Vhttps://cnj.craigslist.org/bik/5435083268.html
p2
aVhttps://newyork.craigslist.org/brk/bik/5432665075.html
p3
aVhttps://cnj.craigslist.org/bik/5437806080.html
p4
aVhttps://cnj.craigslist.org/bik/5450833008.html
p5
aVhttps://cnj.craigslist.org/bik/5372679355.html
p6
aVhttps://newyork.craigslist.org/lgi/bik/5434490285.html
p7
aVhttps://hudsonvalley.craigslist.org/bik/5406627262.html
p8
aVhttps://newjersey.craigslist.org/bid/5427713309.html
p9
aVhttps://newyork.craigslist.org/wch/bid/5439320377.html
p10
aVhttps://newjersey.craigslist.org/bik/5437720376.html
p11
aVhttps://hudsonvalley.craigslist.org/bik/5442558530.html
p12
aVhttps://newyork.craigslist.org/que/bik/5441848902.html
p13
aVhttps://newyork.craigslist.org/mnh/bik/5402638282.html
p14
aVhttps://newyork.craigslist.org/mnh/bik/5434669171.html
p15
aVhttps://jerseyshore.craigslist.org/bik/5395987335.html
p16
aVhttps://newyork.craigslist.org/brk/bik/5429051139.html
p17
aVhttps://newhaven.craigslist.org/bik/5446512694.html
p18
aVhttps://newyork.craigslist.org/brk/bik/5415911725.html
p19
aVhttps://newyork.craigslist.org/que/bik/5442683071.html
p20
aVhttps://newyork.craigslist.org/brk/bik/5443348074.html
p21
aVhttps://newyork.craigslist.org/wch/bik/5444300907.html
p22
aVhttps://newyork.craigslist.org/que/bik/5448003334.html
p23
aVhttps://cnj.craigslist.org/bik/5418293666.html
p24
aVhttps://longisland.craigslist.org/bik/5427256144.html
p25
aVhttps://newyork.craigslist.org/mnh/bid/5442874689.html
p26
aVhttps://newyork.craigslist.org/wch/bik/5446013233.html
p27
aVhttps://longisland.craigslist.org/bik/5394937002.html
p28
aVhttps://newjersey.craigslist.org/bik/5392201914.html
p29
aVhttps://newyork.craigslist.org/wch/bik/5434720079.html
p30
aVhttps://newyork.craigslist.org/mnh/bik/5447856440.html
p31
aVhttps://longisland.craigslist.org/bik/5444145301.html
p32
aVhttps://newyork.craigslist.org/brk/bik/5449749305.html
p33
aVhttps://cnj.craigslist.org/bik/5397202688.html
p34
aVhttps://newyork.craigslist.org/fct/bik/5447548166.html
p35
aVhttps://newjersey.craigslist.org/bik/5413332047.html
p36
aVhttps://hudsonvalley.craigslist.org/bik/5407435041.html
p37
aVhttps://newjersey.craigslist.org/bid/5432902563.html
p38
aVhttps://cnj.craigslist.org/bik/5385786099.html
p39
aVhttps://newyork.craigslist.org/mnh/bid/5446381216.html
p40
aVhttps://newjersey.craigslist.org/bik/5391394424.html
p41
aVhttps://newjersey.craigslist.org/bid/5418935100.html
p42
aVhttps://newyork.craigslist.org/mnh/bik/5447373729.html
p43
aVhttps://newjersey.craigslist.org/bik/5405854365.html
p44
aVhttps://newjersey.craigslist.org/bik/5422382046.html
p45
aVhttps://newyork.craigslist.org/jsy/bik/5438760560.html
p46
aVhttps://hudsonvalley.craigslist.org/bik/5436849049.html
p47
aVhttps://newyork.craigslist.org/brk/bik/5402416958.html
p48
aVhttps://newhaven.craigslist.org/bik/5374947825.html
p49
aS'https://newyork.craigslist.org/mnh/bik/5402639823.html'
p50
aVhttps://newyork.craigslist.org/lgi/bik/5427255678.html
p51
aVhttps://newyork.craigslist.org/brk/bik/5446478516.html
p52
aVhttps://newyork.craigslist.org/wch/bik/5442773538.html
p53
aVhttps://cnj.craigslist.org/bik/5422393945.html
p54
atp55
Rp56
.